target datalayout = "e-m:e-p270:32:32-p271:32:32-p272:64:64-i64:64-i128:128-f80:128-n8:16:32:64-S128"
target triple = "x86_64-pc-linux-gnu"

%struct.v8dwt_local = type { ptr, i32, i32, i32, i32, i32, i32, i32 }
%union.opj_v8_t = type { [8 x float] }

; Function Attrs: nounwind uwtable
define internal void @opj_v8dwt_interleave_partial_h(ptr noundef %0, ptr noundef %1, i32 noundef %2, i32 noundef %3) #0 {
  %5 = alloca ptr, align 8
  %6 = alloca ptr, align 8
  %7 = alloca i32, align 4
  %8 = alloca i32, align 4
  %9 = alloca i32, align 4
  %10 = alloca i32, align 4
  store ptr %0, ptr %5, align 8, !tbaa !249
  store ptr %1, ptr %6, align 8, !tbaa !95
  store i32 %2, ptr %7, align 4, !tbaa !24
  store i32 %3, ptr %8, align 4, !tbaa !24
  call void @llvm.lifetime.start.p0(i64 4, ptr %9) #9
  store i32 0, ptr %9, align 4, !tbaa !24
  br label %11

11:                                               ; preds = %90, %4
  %12 = load i32, ptr %9, align 4, !tbaa !24
  %13 = load i32, ptr %8, align 4, !tbaa !24
  %14 = icmp ult i32 %12, %13
  br i1 %14, label %15, label %93

15:                                               ; preds = %11
  call void @llvm.lifetime.start.p0(i64 4, ptr %10) #9
  %16 = load ptr, ptr %6, align 8, !tbaa !95
  %17 = load ptr, ptr %5, align 8, !tbaa !249
  %18 = getelementptr inbounds nuw %struct.v8dwt_local, ptr %17, i32 0, i32 4
  %19 = load i32, ptr %18, align 4, !tbaa !131
  %20 = load i32, ptr %7, align 4, !tbaa !24
  %21 = load i32, ptr %9, align 4, !tbaa !24
  %22 = add i32 %20, %21
  %23 = load ptr, ptr %5, align 8, !tbaa !249
  %24 = getelementptr inbounds nuw %struct.v8dwt_local, ptr %23, i32 0, i32 5
  %25 = load i32, ptr %24, align 8, !tbaa !132
  %26 = load i32, ptr %7, align 4, !tbaa !24
  %27 = load i32, ptr %9, align 4, !tbaa !24
  %28 = add i32 %26, %27
  %29 = add i32 %28, 1
  %30 = load ptr, ptr %5, align 8, !tbaa !249
  %31 = getelementptr inbounds nuw %struct.v8dwt_local, ptr %30, i32 0, i32 0
  %32 = load ptr, ptr %31, align 8, !tbaa !126
  %33 = load ptr, ptr %5, align 8, !tbaa !249
  %34 = getelementptr inbounds nuw %struct.v8dwt_local, ptr %33, i32 0, i32 3
  %35 = load i32, ptr %34, align 8, !tbaa !130
  %36 = sext i32 %35 to i64
  %37 = getelementptr inbounds %union.opj_v8_t, ptr %32, i64 %36
  %38 = load ptr, ptr %5, align 8, !tbaa !249
  %39 = getelementptr inbounds nuw %struct.v8dwt_local, ptr %38, i32 0, i32 4
  %40 = load i32, ptr %39, align 4, !tbaa !131
  %41 = mul i32 2, %40
  %42 = zext i32 %41 to i64
  %43 = getelementptr inbounds nuw %union.opj_v8_t, ptr %37, i64 %42
  %44 = load i32, ptr %9, align 4, !tbaa !24
  %45 = zext i32 %44 to i64
  %46 = getelementptr inbounds nuw i32, ptr %43, i64 %45
  %47 = call i32 @opj_sparse_array_int32_read(ptr noundef %16, i32 noundef %19, i32 noundef %22, i32 noundef %25, i32 noundef %29, ptr noundef %46, i32 noundef 16, i32 noundef 0, i32 noundef 1)
  store i32 %47, ptr %10, align 4, !tbaa !24
  %48 = load ptr, ptr %6, align 8, !tbaa !95
  %49 = load ptr, ptr %5, align 8, !tbaa !249
  %50 = getelementptr inbounds nuw %struct.v8dwt_local, ptr %49, i32 0, i32 2
  %51 = load i32, ptr %50, align 4, !tbaa !128
  %52 = load ptr, ptr %5, align 8, !tbaa !249
  %53 = getelementptr inbounds nuw %struct.v8dwt_local, ptr %52, i32 0, i32 6
  %54 = load i32, ptr %53, align 4, !tbaa !133
  %55 = add i32 %51, %54
  %56 = load i32, ptr %7, align 4, !tbaa !24
  %57 = load i32, ptr %9, align 4, !tbaa !24
  %58 = add i32 %56, %57
  %59 = load ptr, ptr %5, align 8, !tbaa !249
  %60 = getelementptr inbounds nuw %struct.v8dwt_local, ptr %59, i32 0, i32 2
  %61 = load i32, ptr %60, align 4, !tbaa !128
  %62 = load ptr, ptr %5, align 8, !tbaa !249
  %63 = getelementptr inbounds nuw %struct.v8dwt_local, ptr %62, i32 0, i32 7
  %64 = load i32, ptr %63, align 8, !tbaa !134
  %65 = add i32 %61, %64
  %66 = load i32, ptr %7, align 4, !tbaa !24
  %67 = load i32, ptr %9, align 4, !tbaa !24
  %68 = add i32 %66, %67
  %69 = add i32 %68, 1
  %70 = load ptr, ptr %5, align 8, !tbaa !249
  %71 = getelementptr inbounds nuw %struct.v8dwt_local, ptr %70, i32 0, i32 0
  %72 = load ptr, ptr %71, align 8, !tbaa !126
  %73 = getelementptr inbounds %union.opj_v8_t, ptr %72, i64 1
  %74 = load ptr, ptr %5, align 8, !tbaa !249
  %75 = getelementptr inbounds nuw %struct.v8dwt_local, ptr %74, i32 0, i32 3
  %76 = load i32, ptr %75, align 8, !tbaa !130
  %77 = sext i32 %76 to i64
  %78 = sub i64 0, %77
  %79 = getelementptr inbounds %union.opj_v8_t, ptr %73, i64 %78
  %80 = load ptr, ptr %5, align 8, !tbaa !249
  %81 = getelementptr inbounds nuw %struct.v8dwt_local, ptr %80, i32 0, i32 6
  %82 = load i32, ptr %81, align 4, !tbaa !133
  %83 = mul i32 2, %82
  %84 = zext i32 %83 to i64
  %85 = getelementptr inbounds nuw %union.opj_v8_t, ptr %79, i64 %84
  %86 = load i32, ptr %9, align 4, !tbaa !24
  %87 = zext i32 %86 to i64
  %88 = getelementptr inbounds nuw i32, ptr %85, i64 %87
  %89 = call i32 @opj_sparse_array_int32_read(ptr noundef %48, i32 noundef %55, i32 noundef %58, i32 noundef %65, i32 noundef %69, ptr noundef %88, i32 noundef 16, i32 noundef 0, i32 noundef 1)
  store i32 %89, ptr %10, align 4, !tbaa !24
  call void @llvm.lifetime.end.p0(i64 4, ptr %10) #9
  br label %90

90:                                               ; preds = %15
  %91 = load i32, ptr %9, align 4, !tbaa !24
  %92 = add i32 %91, 1
  store i32 %92, ptr %9, align 4, !tbaa !24
  br label %11, !llvm.loop !263

93:                                               ; preds = %11
  call void @llvm.lifetime.end.p0(i64 4, ptr %9) #9
  ret void
}