; Function Attrs: nounwind uwtable
define internal fastcc void @opj_v8dwt_interleave_partial_h(ptr noundef nonnull readonly captures(none) %0, ptr noundef nonnull %1, i32 noundef %2, i32 noundef %3) unnamed_addr #0 {
  %.not = icmp eq i32 %3, 0
  br i1 %.not, label %._crit_edge, label %.lr.ph

.lr.ph:                                           ; preds = %4
  %5 = getelementptr inbounds nuw i8, ptr %0, i64 20
  %6 = getelementptr inbounds nuw i8, ptr %0, i64 24
  %7 = getelementptr inbounds nuw i8, ptr %0, i64 16
  %8 = getelementptr inbounds nuw i8, ptr %0, i64 12
  %9 = getelementptr inbounds nuw i8, ptr %0, i64 28
  %10 = getelementptr inbounds nuw i8, ptr %0, i64 32
  %wide.trip.count = zext i32 %3 to i64
  br label %11

11:                                               ; preds = %.lr.ph, %11
  %indvars.iv = phi i64 [ 0, %.lr.ph ], [ %indvars.iv.next, %11 ]
  %12 = load i32, ptr %5, align 4, !tbaa !194
  %13 = trunc nuw i64 %indvars.iv to i32
  %14 = add i32 %2, %13
  %15 = load i32, ptr %6, align 8, !tbaa !195
  %16 = add i32 %14, 1
  %17 = load ptr, ptr %0, align 8, !tbaa !189
  %18 = load i32, ptr %7, align 8, !tbaa !193
  %19 = sext i32 %18 to i64
  %20 = getelementptr inbounds %union.opj_v8_t, ptr %17, i64 %19
  %21 = shl i32 %12, 1
  %22 = zext i32 %21 to i64
  %23 = getelementptr inbounds nuw %union.opj_v8_t, ptr %20, i64 %22
  %24 = getelementptr inbounds nuw i32, ptr %23, i64 %indvars.iv
  %25 = tail call i32 @opj_sparse_array_int32_read(ptr noundef nonnull %1, i32 noundef %12, i32 noundef %14, i32 noundef %15, i32 noundef %16, ptr noundef %24, i32 noundef 16, i32 noundef 0, i32 noundef 1) #16
  %26 = load i32, ptr %8, align 4, !tbaa !191
  %27 = load i32, ptr %9, align 4, !tbaa !196
  %28 = add i32 %27, %26
  %29 = load i32, ptr %10, align 8, !tbaa !197
  %30 = add i32 %29, %26
  %31 = load ptr, ptr %0, align 8, !tbaa !189
  %32 = getelementptr inbounds nuw i8, ptr %31, i64 32
  %33 = load i32, ptr %7, align 8, !tbaa !193
  %34 = sext i32 %33 to i64
  %35 = sub nsw i64 0, %34
  %36 = getelementptr inbounds %union.opj_v8_t, ptr %32, i64 %35
  %37 = shl i32 %27, 1
  %38 = zext i32 %37 to i64
  %39 = getelementptr inbounds nuw %union.opj_v8_t, ptr %36, i64 %38
  %40 = getelementptr inbounds nuw i32, ptr %39, i64 %indvars.iv
  %41 = tail call i32 @opj_sparse_array_int32_read(ptr noundef nonnull %1, i32 noundef %28, i32 noundef %14, i32 noundef %30, i32 noundef %16, ptr noundef nonnull %40, i32 noundef 16, i32 noundef 0, i32 noundef 1) #16
  %indvars.iv.next = add nuw nsw i64 %indvars.iv, 1
  %exitcond.not = icmp eq i64 %indvars.iv.next, %wide.trip.count
  br i1 %exitcond.not, label %._crit_edge, label %11, !llvm.loop !253

._crit_edge:                                      ; preds = %11, %4
  ret void
}